target datalayout = "e-m:e-p270:32:32-p271:32:32-p272:64:64-i64:64-i128:128-f80:128-n8:16:32:64-S128"
target triple = "x86_64-pc-linux-gnu"

%struct.ImVector.1 = type { i32, i32, ptr }
%struct.ImFont = type <{ %struct.ImVector.6, float, float, %struct.ImVector.1, %struct.ImVector.7, ptr, ptr, ptr, i16, i16, i16, i16, float, float, i8, [3 x i8], float, float, float, i32, [2 x i8], [2 x i8] }>
%struct.ImVector.6 = type { i32, i32, ptr }
%struct.ImVector.7 = type { i32, i32, ptr }

; Function Attrs: inlinehint mustprogress uwtable
define linkonce_odr dso_local void @_ZN8ImVectorItE5clearEv(ptr noundef nonnull align 8 dereferenceable(16) %0) #5 comdat align 2 {
  %2 = alloca ptr, align 8
  store ptr %0, ptr %2, align 8, !tbaa !93
  %3 = load ptr, ptr %2, align 8
  %4 = getelementptr inbounds nuw %struct.ImVector.1, ptr %3, i32 0, i32 2
  %5 = load ptr, ptr %4, align 8, !tbaa !111
  %6 = icmp ne ptr %5, null
  br i1 %6, label %7, label %13

7:                                                ; preds = %1
  %8 = getelementptr inbounds nuw %struct.ImVector.1, ptr %3, i32 0, i32 1
  store i32 0, ptr %8, align 4, !tbaa !95
  %9 = getelementptr inbounds nuw %struct.ImVector.1, ptr %3, i32 0, i32 0
  store i32 0, ptr %9, align 8, !tbaa !96
  %10 = getelementptr inbounds nuw %struct.ImVector.1, ptr %3, i32 0, i32 2
  %11 = load ptr, ptr %10, align 8, !tbaa !111
  call void @_ZN5ImGui7MemFreeEPv(ptr noundef %11)
  %12 = getelementptr inbounds nuw %struct.ImVector.1, ptr %3, i32 0, i32 2
  store ptr null, ptr %12, align 8, !tbaa !111
  br label %13

13:                                               ; preds = %7, %1
  ret void
}

; Function Attrs: inlinehint mustprogress uwtable
define linkonce_odr dso_local void @_ZN8ImVectorIfE5clearEv(ptr noundef nonnull align 8 dereferenceable(16) %0) #5 comdat align 2 {
  %2 = alloca ptr, align 8
  store ptr %0, ptr %2, align 8, !tbaa !496
  %3 = load ptr, ptr %2, align 8
  %4 = getelementptr inbounds nuw %struct.ImVector.6, ptr %3, i32 0, i32 2
  %5 = load ptr, ptr %4, align 8, !tbaa !500
  %6 = icmp ne ptr %5, null
  br i1 %6, label %7, label %13

7:                                                ; preds = %1
  %8 = getelementptr inbounds nuw %struct.ImVector.6, ptr %3, i32 0, i32 1
  store i32 0, ptr %8, align 4, !tbaa !498
  %9 = getelementptr inbounds nuw %struct.ImVector.6, ptr %3, i32 0, i32 0
  store i32 0, ptr %9, align 8, !tbaa !499
  %10 = getelementptr inbounds nuw %struct.ImVector.6, ptr %3, i32 0, i32 2
  %11 = load ptr, ptr %10, align 8, !tbaa !500
  call void @_ZN5ImGui7MemFreeEPv(ptr noundef %11)
  %12 = getelementptr inbounds nuw %struct.ImVector.6, ptr %3, i32 0, i32 2
  store ptr null, ptr %12, align 8, !tbaa !500
  br label %13

13:                                               ; preds = %7, %1
  ret void
}

; Function Attrs: inlinehint mustprogress uwtable
define linkonce_odr dso_local void @_ZN8ImVectorI11ImFontGlyphE5clearEv(ptr noundef nonnull align 8 dereferenceable(16) %0) #5 comdat align 2 {
  %2 = alloca ptr, align 8
  store ptr %0, ptr %2, align 8, !tbaa !501
  %3 = load ptr, ptr %2, align 8
  %4 = getelementptr inbounds nuw %struct.ImVector.7, ptr %3, i32 0, i32 2
  %5 = load ptr, ptr %4, align 8, !tbaa !505
  %6 = icmp ne ptr %5, null
  br i1 %6, label %7, label %13

7:                                                ; preds = %1
  %8 = getelementptr inbounds nuw %struct.ImVector.7, ptr %3, i32 0, i32 1
  store i32 0, ptr %8, align 4, !tbaa !503
  %9 = getelementptr inbounds nuw %struct.ImVector.7, ptr %3, i32 0, i32 0
  store i32 0, ptr %9, align 8, !tbaa !504
  %10 = getelementptr inbounds nuw %struct.ImVector.7, ptr %3, i32 0, i32 2
  %11 = load ptr, ptr %10, align 8, !tbaa !505
  call void @_ZN5ImGui7MemFreeEPv(ptr noundef %11)
  %12 = getelementptr inbounds nuw %struct.ImVector.7, ptr %3, i32 0, i32 2
  store ptr null, ptr %12, align 8, !tbaa !505
  br label %13

13:                                               ; preds = %7, %1
  ret void
}

; Function Attrs: inlinehint mustprogress nounwind uwtable
define linkonce_odr dso_local void @_ZN8ImVectorIfED2Ev(ptr noundef nonnull align 8 dereferenceable(16) %0) unnamed_addr #7 comdat align 2 personality ptr @__gxx_personality_v0 {
  %2 = alloca ptr, align 8
  store ptr %0, ptr %2, align 8, !tbaa !496
  %3 = load ptr, ptr %2, align 8
  %4 = getelementptr inbounds nuw %struct.ImVector.6, ptr %3, i32 0, i32 2
  %5 = load ptr, ptr %4, align 8, !tbaa !500
  %6 = icmp ne ptr %5, null
  br i1 %6, label %7, label %11

7:                                                ; preds = %1
  %8 = getelementptr inbounds nuw %struct.ImVector.6, ptr %3, i32 0, i32 2
  %9 = load ptr, ptr %8, align 8, !tbaa !500
  invoke void @_ZN5ImGui7MemFreeEPv(ptr noundef %9)
          to label %10 unwind label %12

10:                                               ; preds = %7
  br label %11

11:                                               ; preds = %10, %1
  ret void

12:                                               ; preds = %7
  %13 = landingpad { ptr, i32 }
          catch ptr null
  %14 = extractvalue { ptr, i32 } %13, 0
  call void @__clang_call_terminate(ptr %14) #18
  unreachable
}

; Function Attrs: inlinehint mustprogress nounwind uwtable
define linkonce_odr dso_local void @_ZN8ImVectorItED2Ev(ptr noundef nonnull align 8 dereferenceable(16) %0) unnamed_addr #7 comdat align 2 personality ptr @__gxx_personality_v0 {
  %2 = alloca ptr, align 8
  store ptr %0, ptr %2, align 8, !tbaa !93
  %3 = load ptr, ptr %2, align 8
  %4 = getelementptr inbounds nuw %struct.ImVector.1, ptr %3, i32 0, i32 2
  %5 = load ptr, ptr %4, align 8, !tbaa !111
  %6 = icmp ne ptr %5, null
  br i1 %6, label %7, label %11

7:                                                ; preds = %1
  %8 = getelementptr inbounds nuw %struct.ImVector.1, ptr %3, i32 0, i32 2
  %9 = load ptr, ptr %8, align 8, !tbaa !111
  invoke void @_ZN5ImGui7MemFreeEPv(ptr noundef %9)
          to label %10 unwind label %12

10:                                               ; preds = %7
  br label %11

11:                                               ; preds = %10, %1
  ret void

12:                                               ; preds = %7
  %13 = landingpad { ptr, i32 }
          catch ptr null
  %14 = extractvalue { ptr, i32 } %13, 0
  call void @__clang_call_terminate(ptr %14) #18
  unreachable
}

; Function Attrs: inlinehint mustprogress nounwind uwtable
define linkonce_odr dso_local void @_ZN8ImVectorI11ImFontGlyphED2Ev(ptr noundef nonnull align 8 dereferenceable(16) %0) unnamed_addr #7 comdat align 2 personality ptr @__gxx_personality_v0 {
  %2 = alloca ptr, align 8
  store ptr %0, ptr %2, align 8, !tbaa !501
  %3 = load ptr, ptr %2, align 8
  %4 = getelementptr inbounds nuw %struct.ImVector.7, ptr %3, i32 0, i32 2
  %5 = load ptr, ptr %4, align 8, !tbaa !505
  %6 = icmp ne ptr %5, null
  br i1 %6, label %7, label %11

7:                                                ; preds = %1
  %8 = getelementptr inbounds nuw %struct.ImVector.7, ptr %3, i32 0, i32 2
  %9 = load ptr, ptr %8, align 8, !tbaa !505
  invoke void @_ZN5ImGui7MemFreeEPv(ptr noundef %9)
          to label %10 unwind label %12

10:                                               ; preds = %7
  br label %11

11:                                               ; preds = %10, %1
  ret void

12:                                               ; preds = %7
  %13 = landingpad { ptr, i32 }
          catch ptr null
  %14 = extractvalue { ptr, i32 } %13, 0
  call void @__clang_call_terminate(ptr %14) #18
  unreachable
}

; Function Attrs: mustprogress uwtable
define dso_local void @_ZN6ImFont15ClearOutputDataEv(ptr noundef nonnull align 8 dereferenceable(118) %0) #6 align 2 {
  %2 = alloca ptr, align 8
  store ptr %0, ptr %2, align 8, !tbaa !169
  %3 = load ptr, ptr %2, align 8
  %4 = getelementptr inbounds nuw %struct.ImFont, ptr %3, i32 0, i32 2
  store float 0.000000e+00, ptr %4, align 4, !tbaa !173
  %5 = getelementptr inbounds nuw %struct.ImFont, ptr %3, i32 0, i32 1
  store float 0.000000e+00, ptr %5, align 8, !tbaa !442
  %6 = getelementptr inbounds nuw %struct.ImFont, ptr %3, i32 0, i32 4
  call void @_ZN8ImVectorI11ImFontGlyphE5clearEv(ptr noundef nonnull align 8 dereferenceable(16) %6)
  %7 = getelementptr inbounds nuw %struct.ImFont, ptr %3, i32 0, i32 0
  call void @_ZN8ImVectorIfE5clearEv(ptr noundef nonnull align 8 dereferenceable(16) %7)
  %8 = getelementptr inbounds nuw %struct.ImFont, ptr %3, i32 0, i32 3
  call void @_ZN8ImVectorItE5clearEv(ptr noundef nonnull align 8 dereferenceable(16) %8)
  %9 = getelementptr inbounds nuw %struct.ImFont, ptr %3, i32 0, i32 5
  store ptr null, ptr %9, align 8, !tbaa !443
  %10 = getelementptr inbounds nuw %struct.ImFont, ptr %3, i32 0, i32 6
  store ptr null, ptr %10, align 8, !tbaa !440
  %11 = getelementptr inbounds nuw %struct.ImFont, ptr %3, i32 0, i32 14
  store i8 1, ptr %11, align 8, !tbaa !444
  %12 = getelementptr inbounds nuw %struct.ImFont, ptr %3, i32 0, i32 18
  store float 0.000000e+00, ptr %12, align 4, !tbaa !441
  %13 = getelementptr inbounds nuw %struct.ImFont, ptr %3, i32 0, i32 17
  store float 0.000000e+00, ptr %13, align 8, !tbaa !426
  %14 = getelementptr inbounds nuw %struct.ImFont, ptr %3, i32 0, i32 19
  store i32 0, ptr %14, align 8, !tbaa !445
  ret void
}

; Function Attrs: mustprogress nounwind uwtable
define dso_local void @_ZN6ImFontD2Ev(ptr noundef nonnull align 8 dereferenceable(118) %0) unnamed_addr #3 align 2 personality ptr @__gxx_personality_v0 {
  %2 = alloca ptr, align 8
  store ptr %0, ptr %2, align 8, !tbaa !169
  %3 = load ptr, ptr %2, align 8
  invoke void @_ZN6ImFont15ClearOutputDataEv(ptr noundef nonnull align 8 dereferenceable(118) %3)
          to label %4 unwind label %8

4:                                                ; preds = %1
  %5 = getelementptr inbounds nuw %struct.ImFont, ptr %3, i32 0, i32 4
  call void @_ZN8ImVectorI11ImFontGlyphED2Ev(ptr noundef nonnull align 8 dereferenceable(16) %5) #17
  %6 = getelementptr inbounds nuw %struct.ImFont, ptr %3, i32 0, i32 3
  call void @_ZN8ImVectorItED2Ev(ptr noundef nonnull align 8 dereferenceable(16) %6) #17
  %7 = getelementptr inbounds nuw %struct.ImFont, ptr %3, i32 0, i32 0
  call void @_ZN8ImVectorIfED2Ev(ptr noundef nonnull align 8 dereferenceable(16) %7) #17
  ret void

8:                                                ; preds = %1
  %9 = landingpad { ptr, i32 }
          catch ptr null
  %10 = extractvalue { ptr, i32 } %9, 0
  call void @__clang_call_terminate(ptr %10) #18
  unreachable
}