; Function Attrs: mustprogress nounwind uwtable
define dso_local void @_ZN6ImFontD2Ev(ptr noundef nonnull align 8 captures(none) dereferenceable(118) initializes((16, 24)) %0) unnamed_addr #23 align 2 personality ptr @__gxx_personality_v0 {
  %2 = getelementptr inbounds nuw i8, ptr %0, i64 20
  store float 0.000000e+00, ptr %2, align 4, !tbaa !139
  %3 = getelementptr inbounds nuw i8, ptr %0, i64 16
  store float 0.000000e+00, ptr %3, align 8, !tbaa !499
  %4 = getelementptr inbounds nuw i8, ptr %0, i64 48
  %5 = load ptr, ptr %4, align 8, !tbaa !500
  %.not.i.i = icmp eq ptr %5, null
  br i1 %.not.i.i, label %_ZN8ImVectorI11ImFontGlyphE5clearEv.exit.i, label %6

6:                                                ; preds = %1
  %7 = getelementptr inbounds nuw i8, ptr %0, i64 40
  %8 = getelementptr inbounds nuw i8, ptr %0, i64 44
  store i32 0, ptr %8, align 4, !tbaa !501
  store i32 0, ptr %7, align 8, !tbaa !502
  invoke void @_ZN5ImGui7MemFreeEPv(ptr noundef nonnull %5)
          to label %.noexc unwind label %38

.noexc:                                           ; preds = %6
  store ptr null, ptr %4, align 8, !tbaa !500
  br label %_ZN8ImVectorI11ImFontGlyphE5clearEv.exit.i

_ZN8ImVectorI11ImFontGlyphE5clearEv.exit.i:       ; preds = %.noexc, %1
  %9 = getelementptr inbounds nuw i8, ptr %0, i64 8
  %10 = load ptr, ptr %9, align 8, !tbaa !503
  %.not.i1.i = icmp eq ptr %10, null
  br i1 %.not.i1.i, label %_ZN8ImVectorIfE5clearEv.exit.i, label %11

11:                                               ; preds = %_ZN8ImVectorI11ImFontGlyphE5clearEv.exit.i
  %12 = getelementptr inbounds nuw i8, ptr %0, i64 4
  store i32 0, ptr %12, align 4, !tbaa !504
  store i32 0, ptr %0, align 8, !tbaa !505
  invoke void @_ZN5ImGui7MemFreeEPv(ptr noundef nonnull %10)
          to label %.noexc1 unwind label %38

.noexc1:                                          ; preds = %11
  store ptr null, ptr %9, align 8, !tbaa !503
  br label %_ZN8ImVectorIfE5clearEv.exit.i

_ZN8ImVectorIfE5clearEv.exit.i:                   ; preds = %.noexc1, %_ZN8ImVectorI11ImFontGlyphE5clearEv.exit.i
  %13 = getelementptr inbounds nuw i8, ptr %0, i64 32
  %14 = load ptr, ptr %13, align 8, !tbaa !45
  %.not.i2.i = icmp eq ptr %14, null
  br i1 %.not.i2.i, label %18, label %15

15:                                               ; preds = %_ZN8ImVectorIfE5clearEv.exit.i
  %16 = getelementptr inbounds nuw i8, ptr %0, i64 24
  %17 = getelementptr inbounds nuw i8, ptr %0, i64 28
  store i32 0, ptr %17, align 4, !tbaa !44
  store i32 0, ptr %16, align 8, !tbaa !46
  invoke void @_ZN5ImGui7MemFreeEPv(ptr noundef nonnull %14)
          to label %.noexc2 unwind label %38

.noexc2:                                          ; preds = %15
  store ptr null, ptr %13, align 8, !tbaa !45
  br label %18

18:                                               ; preds = %.noexc2, %_ZN8ImVectorIfE5clearEv.exit.i
  %19 = getelementptr inbounds nuw i8, ptr %0, i64 56
  %20 = getelementptr inbounds nuw i8, ptr %0, i64 96
  tail call void @llvm.memset.p0.i64(ptr noundef nonnull align 8 dereferenceable(16) %19, i8 0, i64 16, i1 false)
  store i8 1, ptr %20, align 8, !tbaa !506
  %21 = getelementptr inbounds nuw i8, ptr %0, i64 108
  store float 0.000000e+00, ptr %21, align 4, !tbaa !509
  %22 = getelementptr inbounds nuw i8, ptr %0, i64 104
  store float 0.000000e+00, ptr %22, align 8, !tbaa !498
  %23 = getelementptr inbounds nuw i8, ptr %0, i64 112
  store i32 0, ptr %23, align 8, !tbaa !507
  %24 = load ptr, ptr %4, align 8, !tbaa !500
  %.not.i = icmp eq ptr %24, null
  br i1 %.not.i, label %_ZN8ImVectorItED2Ev.exit, label %25

25:                                               ; preds = %18
  invoke void @_ZN5ImGui7MemFreeEPv(ptr noundef nonnull %24)
          to label %_ZN8ImVectorI11ImFontGlyphED2Ev.exit unwind label %26

26:                                               ; preds = %25
  %27 = landingpad { ptr, i32 }
          catch ptr null
  %28 = extractvalue { ptr, i32 } %27, 0
  tail call void @__clang_call_terminate(ptr %28) #44
  unreachable

_ZN8ImVectorI11ImFontGlyphED2Ev.exit:             ; preds = %25
  %.pre = load ptr, ptr %13, align 8, !tbaa !45
  %.not.i3 = icmp eq ptr %.pre, null
  br i1 %.not.i3, label %_ZN8ImVectorItED2Ev.exit, label %29

29:                                               ; preds = %_ZN8ImVectorI11ImFontGlyphED2Ev.exit
  invoke void @_ZN5ImGui7MemFreeEPv(ptr noundef nonnull %.pre)
          to label %_ZN8ImVectorItED2Ev.exit unwind label %30

30:                                               ; preds = %29
  %31 = landingpad { ptr, i32 }
          catch ptr null
  %32 = extractvalue { ptr, i32 } %31, 0
  tail call void @__clang_call_terminate(ptr %32) #44
  unreachable

_ZN8ImVectorItED2Ev.exit:                         ; preds = %18, %_ZN8ImVectorI11ImFontGlyphED2Ev.exit, %29
  %33 = load ptr, ptr %9, align 8, !tbaa !503
  %.not.i4 = icmp eq ptr %33, null
  br i1 %.not.i4, label %_ZN8ImVectorIfED2Ev.exit, label %34

34:                                               ; preds = %_ZN8ImVectorItED2Ev.exit
  invoke void @_ZN5ImGui7MemFreeEPv(ptr noundef nonnull %33)
          to label %_ZN8ImVectorIfED2Ev.exit unwind label %35

35:                                               ; preds = %34
  %36 = landingpad { ptr, i32 }
          catch ptr null
  %37 = extractvalue { ptr, i32 } %36, 0
  tail call void @__clang_call_terminate(ptr %37) #44
  unreachable

_ZN8ImVectorIfED2Ev.exit:                         ; preds = %_ZN8ImVectorItED2Ev.exit, %34
  ret void

38:                                               ; preds = %15, %11, %6
  %39 = landingpad { ptr, i32 }
          catch ptr null
  %40 = extractvalue { ptr, i32 } %39, 0
  tail call void @__clang_call_terminate(ptr %40) #44
  unreachable
}